#include <math.h>
#include <stdio.h>
#include <stdlib.h>
#include <string.h>

int main()
{
	int n,sum=0;
	scanf("%d",&n);
	int i=1;
	for(i=1;i<=n;i++)
		if(i%7==0||i%10==7||i==71||i==72||i==73||i==74||i==75||i==76||i==78||i==78||i==79)
			sum=sum;
		else
        sum=sum+i*i;
	printf("%d",sum);
	return 0;
}
